; Function Attrs: nofree norecurse nosync nounwind sspstrong memory(argmem: readwrite) uwtable
define dso_local i64 @iov_discard_back(ptr noundef captures(none) %iov, ptr noundef captures(none) %iov_cnt, i64 noundef %bytes) local_unnamed_addr #9 {
entry:
  %0 = load i32, ptr %iov_cnt, align 4
  %cmp.i = icmp eq i32 %0, 0
  br i1 %cmp.i, label %iov_discard_back_undoable.exit, label %while.body.preheader.i

while.body.preheader.i:                           ; preds = %entry
  %sub.i = add i32 %0, -1
  %idx.ext.i = zext i32 %sub.i to i64
  %add.ptr.i = getelementptr %struct.iovec, ptr %iov, i64 %idx.ext.i
  br label %while.body.i

while.body.i:                                     ; preds = %if.end12.i, %while.body.preheader.i
  %cur.027.i = phi ptr [ %incdec.ptr.i, %if.end12.i ], [ %add.ptr.i, %while.body.preheader.i ]
  %total.026.i = phi i64 [ %add16.i, %if.end12.i ], [ 0, %while.body.preheader.i ]
  %bytes.addr.025.i = phi i64 [ %sub14.i, %if.end12.i ], [ %bytes, %while.body.preheader.i ]
  %1 = phi i32 [ %sub17.i, %if.end12.i ], [ %0, %while.body.preheader.i ]
  %iov_len.i = getelementptr inbounds nuw i8, ptr %cur.027.i, i64 8
  %2 = load i64, ptr %iov_len.i, align 8
  %cmp4.i = icmp ugt i64 %2, %bytes.addr.025.i
  br i1 %cmp4.i, label %if.then5.i, label %if.end12.i

if.then5.i:                                       ; preds = %while.body.i
  %iov_len.i.le = getelementptr inbounds nuw i8, ptr %cur.027.i, i64 8
  %sub11.i = sub nuw i64 %2, %bytes.addr.025.i
  store i64 %sub11.i, ptr %iov_len.i.le, align 8
  %add.i = add i64 %bytes.addr.025.i, %total.026.i
  br label %iov_discard_back_undoable.exit

if.end12.i:                                       ; preds = %while.body.i
  %sub14.i = sub nuw i64 %bytes.addr.025.i, %2
  %add16.i = add i64 %2, %total.026.i
  %incdec.ptr.i = getelementptr i8, ptr %cur.027.i, i64 -16
  %sub17.i = add i32 %1, -1
  store i32 %sub17.i, ptr %iov_cnt, align 4
  %cmp3.not.i = icmp eq i32 %sub17.i, 0
  br i1 %cmp3.not.i, label %iov_discard_back_undoable.exit, label %while.body.i, !llvm.loop !26

iov_discard_back_undoable.exit:                   ; preds = %if.end12.i, %entry, %if.then5.i
  %retval.0.i = phi i64 [ 0, %entry ], [ %add.i, %if.then5.i ], [ %add16.i, %if.end12.i ]
  ret i64 %retval.0.i
}